target datalayout = "e-m:e-p270:32:32-p271:32:32-p272:64:64-i64:64-i128:128-f80:128-n8:16:32:64-S128"
target triple = "x86_64-pc-linux-gnu"

%"class.llvm::TypeSize" = type { %"class.llvm::details::FixedOrScalableQuantity.base", [7 x i8] }
%"class.llvm::details::FixedOrScalableQuantity.base" = type <{ i64, i8 }>
%"class.llvm::details::FixedOrScalableQuantity" = type <{ i64, i8, [7 x i8] }>

; Function Attrs: mustprogress nounwind uwtable
define linkonce_odr hidden noundef i64 @_ZNK4llvm7details23FixedOrScalableQuantityINS_8TypeSizeEmE16getKnownMinValueEv(ptr noundef nonnull align 8 dereferenceable(9) %0) #0 comdat align 2 {
  %2 = alloca ptr, align 8
  store ptr %0, ptr %2, align 8
  %3 = load ptr, ptr %2, align 8
  %4 = getelementptr inbounds nuw %"class.llvm::details::FixedOrScalableQuantity", ptr %3, i32 0, i32 0
  %5 = load i64, ptr %4, align 8
  ret i64 %5
}

; Function Attrs: mustprogress nounwind uwtable
define dso_local noundef i32 @_ZN4llvm26AArch64GenRegisterBankInfo23getRegBankBaseIdxOffsetEjNS_8TypeSizeE(i32 noundef %0, i64 %1, i8 %2) #0 align 2 {
  %4 = alloca i32, align 4
  %5 = alloca %"class.llvm::TypeSize", align 8
  %6 = alloca i32, align 4
  %7 = alloca i32, align 4
  %8 = getelementptr inbounds nuw { i64, i8 }, ptr %5, i32 0, i32 0
  store i64 %1, ptr %8, align 8
  %9 = getelementptr inbounds nuw { i64, i8 }, ptr %5, i32 0, i32 1
  store i8 %2, ptr %9, align 8
  store i32 %0, ptr %6, align 4
  %10 = load i32, ptr %6, align 4
  %11 = icmp eq i32 %10, 7
  br i1 %11, label %12, label %25

12:                                               ; preds = %3
  %13 = call noundef i64 @_ZNK4llvm8TypeSizecvmEv(ptr noundef nonnull align 8 dereferenceable(9) %5)
  %14 = icmp ule i64 %13, 32
  br i1 %14, label %15, label %16

15:                                               ; preds = %12
  store i32 0, ptr %4, align 4
  br label %56

16:                                               ; preds = %12
  %17 = call noundef i64 @_ZNK4llvm8TypeSizecvmEv(ptr noundef nonnull align 8 dereferenceable(9) %5)
  %18 = icmp ule i64 %17, 64
  br i1 %18, label %19, label %20

19:                                               ; preds = %16
  store i32 1, ptr %4, align 4
  br label %56

20:                                               ; preds = %16
  %21 = call noundef i64 @_ZNK4llvm8TypeSizecvmEv(ptr noundef nonnull align 8 dereferenceable(9) %5)
  %22 = icmp ule i64 %21, 128
  br i1 %22, label %23, label %24

23:                                               ; preds = %20
  store i32 2, ptr %4, align 4
  br label %56

24:                                               ; preds = %20
  store i32 -1, ptr %4, align 4
  br label %56

25:                                               ; preds = %3
  %26 = load i32, ptr %6, align 4
  %27 = icmp eq i32 %26, 1
  br i1 %27, label %28, label %55

28:                                               ; preds = %25
  %29 = call noundef i64 @_ZNK4llvm7details23FixedOrScalableQuantityINS_8TypeSizeEmE16getKnownMinValueEv(ptr noundef nonnull align 8 dereferenceable(9) %5)
  %30 = trunc i64 %29 to i32
  store i32 %30, ptr %7, align 4
  %31 = load i32, ptr %7, align 4
  %32 = icmp ule i32 %31, 16
  br i1 %32, label %33, label %34

33:                                               ; preds = %28
  store i32 0, ptr %4, align 4
  br label %56

34:                                               ; preds = %28
  %35 = load i32, ptr %7, align 4
  %36 = icmp ule i32 %35, 32
  br i1 %36, label %37, label %38

37:                                               ; preds = %34
  store i32 1, ptr %4, align 4
  br label %56

38:                                               ; preds = %34
  %39 = load i32, ptr %7, align 4
  %40 = icmp ule i32 %39, 64
  br i1 %40, label %41, label %42

41:                                               ; preds = %38
  store i32 2, ptr %4, align 4
  br label %56

42:                                               ; preds = %38
  %43 = load i32, ptr %7, align 4
  %44 = icmp ule i32 %43, 128
  br i1 %44, label %45, label %46

45:                                               ; preds = %42
  store i32 3, ptr %4, align 4
  br label %56

46:                                               ; preds = %42
  %47 = load i32, ptr %7, align 4
  %48 = icmp ule i32 %47, 256
  br i1 %48, label %49, label %50

49:                                               ; preds = %46
  store i32 4, ptr %4, align 4
  br label %56

50:                                               ; preds = %46
  %51 = load i32, ptr %7, align 4
  %52 = icmp ule i32 %51, 512
  br i1 %52, label %53, label %54

53:                                               ; preds = %50
  store i32 5, ptr %4, align 4
  br label %56

54:                                               ; preds = %50
  store i32 -1, ptr %4, align 4
  br label %56

55:                                               ; preds = %25
  store i32 -1, ptr %4, align 4
  br label %56

56:                                               ; preds = %55, %54, %53, %49, %45, %41, %37, %33, %24, %23, %19, %15
  %57 = load i32, ptr %4, align 4
  ret i32 %57
}