; Function Attrs: mustprogress nounwind uwtable
define dso_local noundef range(i32 -1, 6) i32 @_ZN4llvm26AArch64GenRegisterBankInfo23getRegBankBaseIdxOffsetEjNS_8TypeSizeE(i32 noundef %0, i64 %1, i8 %2) local_unnamed_addr #0 align 2 {
  %4 = alloca %"class.llvm::TypeSize", align 8
  store i64 %1, ptr %4, align 8
  %5 = getelementptr inbounds nuw i8, ptr %4, i64 8
  store i8 %2, ptr %5, align 8
  switch i32 %0, label %28 [
    i32 7, label %6
    i32 1, label %15
  ]

6:                                                ; preds = %3
  %7 = call noundef i64 @_ZNK4llvm8TypeSizecvmEv(ptr noundef nonnull align 8 dereferenceable(9) %4) #15
  %8 = icmp ult i64 %7, 33
  br i1 %8, label %28, label %9

9:                                                ; preds = %6
  %10 = call noundef i64 @_ZNK4llvm8TypeSizecvmEv(ptr noundef nonnull align 8 dereferenceable(9) %4) #15
  %11 = icmp ult i64 %10, 65
  br i1 %11, label %28, label %12

12:                                               ; preds = %9
  %13 = call noundef i64 @_ZNK4llvm8TypeSizecvmEv(ptr noundef nonnull align 8 dereferenceable(9) %4) #15
  %14 = icmp ult i64 %13, 129
  %. = select i1 %14, i32 2, i32 -1
  br label %28

15:                                               ; preds = %3
  %16 = trunc i64 %1 to i32
  %17 = icmp ult i32 %16, 17
  br i1 %17, label %28, label %18

18:                                               ; preds = %15
  %19 = icmp ult i32 %16, 33
  br i1 %19, label %28, label %20

20:                                               ; preds = %18
  %21 = icmp ult i32 %16, 65
  br i1 %21, label %28, label %22

22:                                               ; preds = %20
  %23 = icmp ult i32 %16, 129
  br i1 %23, label %28, label %24

24:                                               ; preds = %22
  %25 = icmp ult i32 %16, 257
  br i1 %25, label %28, label %26

26:                                               ; preds = %24
  %27 = icmp ult i32 %16, 513
  %.11 = select i1 %27, i32 5, i32 -1
  br label %28

28:                                               ; preds = %3, %26, %24, %22, %20, %18, %15, %12, %9, %6
  %.0 = phi i32 [ 0, %6 ], [ 1, %9 ], [ %., %12 ], [ 0, %15 ], [ 1, %18 ], [ 2, %20 ], [ 3, %22 ], [ 4, %24 ], [ %.11, %26 ], [ -1, %3 ]
  ret i32 %.0
}